(lp1
(lp2
S'_sage_'
p3
a(dp4
S'username'
p5
g3
sS'account_type'
p6
S'user'
p7
sS'temporary_password'
p8
S''
sS'is_suspended'
p9
I00
sS'external_auth'
p10
NsS'viewable_worksheets'
p11
c__builtin__
set
p12
((ltRp13
sS'email_confirmed'
p14
I00
sS'conf'
p15
(dp16
sS'password'
p17
S'sha256$b35cc6ba6c74bd1d8bd6cc8b98885f4fcede0673f3659ba0061f3ab5a461d0d$6b99289c2c892bafdccbcac827fa985bdd0d3ce7aa5069b939bdbf832b8f5d7b'
p18
sS'email'
p19
S''
saa(lp20
S'admin'
p21
a(dp22
S'username'
p23
g21
sS'account_type'
p24
g21
sS'temporary_password'
p25
S''
sS'is_suspended'
p26
I00
sS'external_auth'
p27
NsS'viewable_worksheets'
p28
g12
((ltRp29
sS'email_confirmed'
p30
I00
sS'conf'
p31
(dp32
sS'password'
p33
S'sha256$230affc2a1c42be6f1696a52a1b5b40db878c63b149e1e3673772c8fe130c803$488207b95a703ca3d8a0946e6f1096c6820c74ca29860c11dacbc71526777427'
p34
sS'email'
p35
S''
saa(lp36
S'guest'
p37
a(dp38
S'username'
p39
g37
sS'account_type'
p40
g37
sS'temporary_password'
p41
S''
sS'is_suspended'
p42
I00
sS'external_auth'
p43
NsS'viewable_worksheets'
p44
g12
((ltRp45
sS'email_confirmed'
p46
I00
sS'conf'
p47
(dp48
sS'password'
p49
S'sha256$f04e54969ac2df5f00b36f7624d7c7f472c940e76a4046a31d73ac71aaa152ae$7e990f1d8e08635e693ffbfdab53cb9be9f83d77af26a68df97aa586802f035a'
p50
sS'email'
p51
S''
saa(lp52
S'pub'
p53
a(dp54
S'username'
p55
g53
sS'account_type'
p56
g7
sS'temporary_password'
p57
S''
sS'is_suspended'
p58
I00
sS'external_auth'
p59
NsS'viewable_worksheets'
p60
g12
((ltRp61
sS'email_confirmed'
p62
I00
sS'conf'
p63
(dp64
sS'password'
p65
S'sha256$5c40314e321a0486543fdcd208af494e36cde549969a9fb00b08bcea29e1cb1d$ecc98acd7affbbccb631196c611840954bbfd74809d376d6c44f00829f78550f'
p66
sS'email'
p67
S''
saa.